; Function Attrs: nounwind uwtable
define hidden ptr @X509V3_EXT_d2i(ptr noundef readonly captures(none) %0) local_unnamed_addr #0 {
  %2 = alloca %struct.v3_ext_method, align 8
  %3 = alloca i64, align 8
  %4 = alloca ptr, align 8
  call void @llvm.lifetime.start.p0(i64 8, ptr nonnull %4) #10
  %5 = load ptr, ptr %0, align 8, !tbaa !22
  %6 = tail call i32 @OBJ_obj2nid(ptr noundef %5) #10
  %7 = icmp eq i32 %6, 0
  br i1 %7, label %X509V3_EXT_get.exit.thread, label %8

8:                                                ; preds = %1
  call void @llvm.lifetime.start.p0(i64 104, ptr nonnull %2) #10
  call void @llvm.lifetime.start.p0(i64 8, ptr nonnull %3) #10
  %9 = icmp slt i32 %6, 0
  br i1 %9, label %X509V3_EXT_get.exit.thread13, label %10

10:                                               ; preds = %8
  store i32 %6, ptr %2, align 8, !tbaa !17
  br label %.lr.ph.i.i.i

.lr.ph.i.i.i:                                     ; preds = %21, %10
  %.01621.i.i.i = phi i64 [ %.1.i.i.i, %21 ], [ 0, %10 ]
  %.01720.i.i.i = phi i64 [ %.118.i.i.i, %21 ], [ 32, %10 ]
  %11 = add i64 %.01720.i.i.i, %.01621.i.i.i
  %12 = lshr i64 %11, 1
  %13 = shl i64 %12, 3
  %14 = getelementptr inbounds nuw i8, ptr @standard_exts, i64 %13
  %15 = load ptr, ptr %14, align 8, !tbaa !15
  %16 = load i32, ptr %15, align 8, !tbaa !17
  %17 = icmp slt i32 %6, %16
  br i1 %17, label %21, label %18

18:                                               ; preds = %.lr.ph.i.i.i
  %.not.i.i.i = icmp eq i32 %6, %16
  br i1 %.not.i.i.i, label %X509V3_EXT_get.exit.thread16, label %19

X509V3_EXT_get.exit.thread16:                     ; preds = %18
  call void @llvm.lifetime.end.p0(i64 8, ptr nonnull %3) #10
  call void @llvm.lifetime.end.p0(i64 104, ptr nonnull %2) #10
  br label %30

19:                                               ; preds = %18
  %20 = add nuw i64 %12, 1
  br label %21

21:                                               ; preds = %19, %.lr.ph.i.i.i
  %.118.i.i.i = phi i64 [ %.01720.i.i.i, %19 ], [ %12, %.lr.ph.i.i.i ]
  %.1.i.i.i = phi i64 [ %20, %19 ], [ %.01621.i.i.i, %.lr.ph.i.i.i ]
  %22 = icmp ult i64 %.1.i.i.i, %.118.i.i.i
  br i1 %22, label %.lr.ph.i.i.i, label %23, !llvm.loop !18

23:                                               ; preds = %21
  %24 = load ptr, ptr @ext_list, align 8, !tbaa !6
  %.not7.i.i = icmp eq ptr %24, null
  br i1 %.not7.i.i, label %X509V3_EXT_get.exit.thread13, label %25

25:                                               ; preds = %23
  %26 = call i32 @sk_find(ptr noundef nonnull %24, ptr noundef nonnull %3, ptr noundef nonnull %2) #10
  %.not8.i.i = icmp eq i32 %26, 0
  br i1 %.not8.i.i, label %X509V3_EXT_get.exit.thread13, label %X509V3_EXT_get.exit

X509V3_EXT_get.exit.thread13:                     ; preds = %8, %23, %25
  call void @llvm.lifetime.end.p0(i64 8, ptr nonnull %3) #10
  call void @llvm.lifetime.end.p0(i64 104, ptr nonnull %2) #10
  br label %X509V3_EXT_get.exit.thread

X509V3_EXT_get.exit:                              ; preds = %25
  %27 = load ptr, ptr @ext_list, align 8, !tbaa !6
  %28 = load i64, ptr %3, align 8, !tbaa !20
  %29 = call ptr @sk_value(ptr noundef %27, i64 noundef %28) #10
  call void @llvm.lifetime.end.p0(i64 8, ptr nonnull %3) #10
  call void @llvm.lifetime.end.p0(i64 104, ptr nonnull %2) #10
  %.not = icmp eq ptr %29, null
  br i1 %.not, label %X509V3_EXT_get.exit.thread, label %30

30:                                               ; preds = %X509V3_EXT_get.exit.thread16, %X509V3_EXT_get.exit
  %.0.i.i19 = phi ptr [ %15, %X509V3_EXT_get.exit.thread16 ], [ %29, %X509V3_EXT_get.exit ]
  %31 = getelementptr inbounds nuw i8, ptr %0, i64 16
  %32 = load ptr, ptr %31, align 8, !tbaa !33
  %33 = getelementptr inbounds nuw i8, ptr %32, i64 8
  %34 = load ptr, ptr %33, align 8, !tbaa !34
  store ptr %34, ptr %4, align 8, !tbaa !37
  %35 = getelementptr inbounds nuw i8, ptr %.0.i.i19, i64 8
  %36 = load ptr, ptr %35, align 8, !tbaa !26
  %.not10 = icmp eq ptr %36, null
  br i1 %.not10, label %41, label %37

37:                                               ; preds = %30
  %38 = load i32, ptr %32, align 8, !tbaa !38
  %39 = sext i32 %38 to i64
  %40 = call ptr @ASN1_item_d2i(ptr noundef null, ptr noundef nonnull %4, i64 noundef %39, ptr noundef nonnull %36) #10
  br label %X509V3_EXT_get.exit.thread

41:                                               ; preds = %30
  %42 = getelementptr inbounds nuw i8, ptr %.0.i.i19, i64 32
  %43 = load ptr, ptr %42, align 8, !tbaa !39
  %44 = load i32, ptr %32, align 8, !tbaa !38
  %45 = sext i32 %44 to i64
  %46 = call ptr %43(ptr noundef null, ptr noundef nonnull %4, i64 noundef %45) #10
  br label %X509V3_EXT_get.exit.thread

X509V3_EXT_get.exit.thread:                       ; preds = %1, %X509V3_EXT_get.exit.thread13, %X509V3_EXT_get.exit, %41, %37
  %.0 = phi ptr [ %40, %37 ], [ %46, %41 ], [ null, %X509V3_EXT_get.exit ], [ null, %X509V3_EXT_get.exit.thread13 ], [ null, %1 ]
  call void @llvm.lifetime.end.p0(i64 8, ptr nonnull %4) #10
  ret ptr %.0
}